; Function Attrs: mustprogress nounwind uwtable
define dso_local void @_ZN4node17SocketAddressBase10InitializeEPNS_11EnvironmentEN2v85LocalINS3_6ObjectEEE(ptr nocapture noundef readonly %env, ptr %target.coerce) local_unnamed_addr #3 align 2 {
entry:
  %principal_realm_.i.i = getelementptr inbounds i8, ptr %env, i64 2728
  %0 = load ptr, ptr %principal_realm_.i.i, align 8
  %vtable.i = load ptr, ptr %0, align 8
  %vfn.i = getelementptr inbounds i8, ptr %vtable.i, i64 64
  %1 = load ptr, ptr %vfn.i, align 8
  %call2.i = tail call ptr %1(ptr noundef nonnull align 8 dereferenceable(872) %0) #21
  %call8 = tail call ptr @_ZN4node17SocketAddressBase22GetConstructorTemplateEPNS_11EnvironmentE(ptr noundef nonnull %env)
  tail call void @_ZN4node22SetConstructorFunctionEN2v85LocalINS0_7ContextEEENS1_INS0_6ObjectEEEPKcNS1_INS0_16FunctionTemplateEEENS_26SetConstructorFunctionFlagE(ptr %call2.i, ptr %target.coerce, ptr noundef nonnull @.str.53, ptr %call8, i32 noundef 0) #21
  ret void
}